; Function Attrs: nounwind uwtable
define ptr @l_Array_mapMUnsafe_map___at_Lean_Elab_Command_runLintersAsync___spec__1(i64 noundef %0, i64 noundef %1, ptr noundef %2) local_unnamed_addr #0 {
  %.not56 = icmp ult i64 %1, %0
  br i1 %.not56, label %.lr.ph, label %._crit_edge

.lr.ph:                                           ; preds = %3, %80
  %.02358 = phi i64 [ %64, %80 ], [ %1, %3 ]
  %.02557 = phi ptr [ %.0.i.i42, %80 ], [ %2, %3 ]
  %4 = getelementptr inbounds nuw i8, ptr %.02557, i64 24
  %5 = getelementptr inbounds nuw [0 x ptr], ptr %4, i64 0, i64 %.02358
  %6 = load ptr, ptr %5, align 8, !tbaa !9
  %7 = ptrtoint ptr %6 to i64
  %8 = and i64 %7, 1
  %.not.i32 = icmp eq i64 %8, 0
  br i1 %.not.i32, label %9, label %lean_array_uget.exit

9:                                                ; preds = %.lr.ph
  %.val.i.i = load i32, ptr %6, align 4, !tbaa !4
  %10 = icmp sgt i32 %.val.i.i, 0
  br i1 %10, label %11, label %13, !prof !13

11:                                               ; preds = %9
  %12 = add nuw i32 %.val.i.i, 1
  store i32 %12, ptr %6, align 4, !tbaa !4
  br label %lean_array_uget.exit

13:                                               ; preds = %9
  %.not.i.i = icmp eq i32 %.val.i.i, 0
  br i1 %.not.i.i, label %lean_array_uget.exit, label %14

14:                                               ; preds = %13
  tail call void @lean_inc_ref_cold(ptr noundef nonnull %6) #6
  br label %lean_array_uget.exit

lean_array_uget.exit:                             ; preds = %.lr.ph, %11, %13, %14
  %.val.i.i33 = load i32, ptr %.02557, align 4, !tbaa !4
  %15 = icmp eq i32 %.val.i.i33, 1
  br i1 %15, label %lean_ensure_exclusive_array.exit.i, label %16

16:                                               ; preds = %lean_array_uget.exit
  %17 = tail call ptr @lean_copy_expand_array(ptr noundef nonnull %.02557, i1 noundef zeroext false) #6
  br label %lean_ensure_exclusive_array.exit.i

lean_ensure_exclusive_array.exit.i:               ; preds = %16, %lean_array_uget.exit
  %.0.i.i = phi ptr [ %17, %16 ], [ %.02557, %lean_array_uget.exit ]
  %18 = getelementptr inbounds nuw i8, ptr %.0.i.i, i64 24
  %19 = getelementptr inbounds nuw ptr, ptr %18, i64 %.02358
  %20 = load ptr, ptr %19, align 8, !tbaa !9
  %21 = ptrtoint ptr %20 to i64
  %22 = and i64 %21, 1
  %.not.i34 = icmp eq i64 %22, 0
  br i1 %.not.i34, label %23, label %lean_array_uset.exit

23:                                               ; preds = %lean_ensure_exclusive_array.exit.i
  %24 = load i32, ptr %20, align 4, !tbaa !4
  %25 = icmp sgt i32 %24, 1
  br i1 %25, label %26, label %28, !prof !13

26:                                               ; preds = %23
  %27 = add nsw i32 %24, -1
  store i32 %27, ptr %20, align 4, !tbaa !4
  br label %lean_array_uset.exit

28:                                               ; preds = %23
  %.not.i.i35 = icmp eq i32 %24, 0
  br i1 %.not.i.i35, label %lean_array_uset.exit, label %29

29:                                               ; preds = %28
  tail call void @lean_dec_ref_cold(ptr noundef nonnull %20) #6
  br label %lean_array_uset.exit

lean_array_uset.exit:                             ; preds = %lean_ensure_exclusive_array.exit.i, %26, %28, %29
  store ptr inttoptr (i64 1 to ptr), ptr %19, align 8, !tbaa !9
  %30 = getelementptr inbounds nuw i8, ptr %6, i64 16
  %31 = load ptr, ptr %30, align 8, !tbaa !9
  %32 = ptrtoint ptr %31 to i64
  %33 = and i64 %32, 1
  %.not53 = icmp eq i64 %33, 0
  br i1 %.not53, label %34, label %lean_inc.exit28

34:                                               ; preds = %lean_array_uset.exit
  %.val.i = load i32, ptr %31, align 4, !tbaa !4
  %35 = icmp sgt i32 %.val.i, 0
  br i1 %35, label %36, label %38, !prof !13

36:                                               ; preds = %34
  %37 = add nuw i32 %.val.i, 1
  store i32 %37, ptr %31, align 4, !tbaa !4
  br label %lean_inc.exit28

38:                                               ; preds = %34
  %.not.i36 = icmp eq i32 %.val.i, 0
  br i1 %.not.i36, label %lean_inc.exit28, label %39

39:                                               ; preds = %38
  tail call void @lean_inc_ref_cold(ptr noundef nonnull %31) #6
  br label %lean_inc.exit28

lean_inc.exit28:                                  ; preds = %39, %38, %36, %lean_array_uset.exit
  br i1 %.not.i32, label %40, label %lean_dec.exit29

40:                                               ; preds = %lean_inc.exit28
  %41 = load i32, ptr %6, align 4, !tbaa !4
  %42 = icmp sgt i32 %41, 1
  br i1 %42, label %43, label %45, !prof !13

43:                                               ; preds = %40
  %44 = add nsw i32 %41, -1
  store i32 %44, ptr %6, align 4, !tbaa !4
  br label %lean_dec.exit29

45:                                               ; preds = %40
  %.not.i = icmp eq i32 %41, 0
  br i1 %.not.i, label %lean_dec.exit29, label %46

46:                                               ; preds = %45
  tail call void @lean_dec_ref_cold(ptr noundef nonnull %6) #6
  br label %lean_dec.exit29

lean_dec.exit29:                                  ; preds = %46, %45, %43, %lean_inc.exit28
  %47 = getelementptr inbounds nuw i8, ptr %31, i64 8
  %48 = load ptr, ptr %47, align 8, !tbaa !9
  %49 = ptrtoint ptr %48 to i64
  %50 = and i64 %49, 1
  %.not55 = icmp eq i64 %50, 0
  br i1 %.not55, label %51, label %lean_inc.exit

51:                                               ; preds = %lean_dec.exit29
  %.val.i37 = load i32, ptr %48, align 4, !tbaa !4
  %52 = icmp sgt i32 %.val.i37, 0
  br i1 %52, label %53, label %55, !prof !13

53:                                               ; preds = %51
  %54 = add nuw i32 %.val.i37, 1
  store i32 %54, ptr %48, align 4, !tbaa !4
  br label %lean_inc.exit

55:                                               ; preds = %51
  %.not.i38 = icmp eq i32 %.val.i37, 0
  br i1 %.not.i38, label %lean_inc.exit, label %56

56:                                               ; preds = %55
  tail call void @lean_inc_ref_cold(ptr noundef nonnull %48) #6
  br label %lean_inc.exit

lean_inc.exit:                                    ; preds = %56, %55, %53, %lean_dec.exit29
  br i1 %.not53, label %57, label %lean_dec.exit

57:                                               ; preds = %lean_inc.exit
  %58 = load i32, ptr %31, align 4, !tbaa !4
  %59 = icmp sgt i32 %58, 1
  br i1 %59, label %60, label %62, !prof !13

60:                                               ; preds = %57
  %61 = add nsw i32 %58, -1
  store i32 %61, ptr %31, align 4, !tbaa !4
  br label %lean_dec.exit

62:                                               ; preds = %57
  %.not.i30 = icmp eq i32 %58, 0
  br i1 %.not.i30, label %lean_dec.exit, label %63

63:                                               ; preds = %62
  tail call void @lean_dec_ref_cold(ptr noundef nonnull %31) #6
  br label %lean_dec.exit

lean_dec.exit:                                    ; preds = %63, %62, %60, %lean_inc.exit
  %64 = add nuw i64 %.02358, 1
  %.val.i.i40 = load i32, ptr %.0.i.i, align 4, !tbaa !4
  %65 = icmp eq i32 %.val.i.i40, 1
  br i1 %65, label %lean_ensure_exclusive_array.exit.i41, label %66

66:                                               ; preds = %lean_dec.exit
  %67 = tail call ptr @lean_copy_expand_array(ptr noundef nonnull %.0.i.i, i1 noundef zeroext false) #6
  br label %lean_ensure_exclusive_array.exit.i41

lean_ensure_exclusive_array.exit.i41:             ; preds = %66, %lean_dec.exit
  %.0.i.i42 = phi ptr [ %67, %66 ], [ %.0.i.i, %lean_dec.exit ]
  %68 = getelementptr inbounds nuw i8, ptr %.0.i.i42, i64 24
  %69 = getelementptr inbounds nuw ptr, ptr %68, i64 %.02358
  %70 = load ptr, ptr %69, align 8, !tbaa !9
  %71 = ptrtoint ptr %70 to i64
  %72 = and i64 %71, 1
  %.not.i43 = icmp eq i64 %72, 0
  br i1 %.not.i43, label %73, label %80

73:                                               ; preds = %lean_ensure_exclusive_array.exit.i41
  %74 = load i32, ptr %70, align 4, !tbaa !4
  %75 = icmp sgt i32 %74, 1
  br i1 %75, label %76, label %78, !prof !13

76:                                               ; preds = %73
  %77 = add nsw i32 %74, -1
  store i32 %77, ptr %70, align 4, !tbaa !4
  br label %80

78:                                               ; preds = %73
  %.not.i.i44 = icmp eq i32 %74, 0
  br i1 %.not.i.i44, label %80, label %79

79:                                               ; preds = %78
  tail call void @lean_dec_ref_cold(ptr noundef nonnull %70) #6
  br label %80

80:                                               ; preds = %79, %78, %76, %lean_ensure_exclusive_array.exit.i41
  store ptr %48, ptr %69, align 8, !tbaa !9
  %exitcond.not = icmp eq i64 %64, %0
  br i1 %exitcond.not, label %._crit_edge, label %.lr.ph

._crit_edge:                                      ; preds = %80, %3
  %.025.lcssa = phi ptr [ %2, %3 ], [ %.0.i.i42, %80 ]
  ret ptr %.025.lcssa
}